; Function Attrs: nofree nounwind uwtable
define void @Aig_ManPartitionPrint(ptr noundef readnone captures(none) %0, ptr noundef readonly captures(none) %1, ptr noundef readonly captures(none) %2) local_unnamed_addr #10 {
  %4 = getelementptr i8, ptr %2, i64 8
  %5 = getelementptr i8, ptr %2, i64 4
  %.val1419 = load i32, ptr %5, align 4, !tbaa !12
  %6 = icmp sgt i32 %.val1419, 0
  br i1 %6, label %.lr.ph, label %.critedge

.lr.ph:                                           ; preds = %3
  %7 = getelementptr i8, ptr %1, i64 8
  %8 = getelementptr i8, ptr %1, i64 4
  br label %12

9:                                                ; preds = %12
  %indvars.iv.next = add nuw nsw i64 %indvars.iv, 1
  %.val14 = load i32, ptr %5, align 4, !tbaa !12
  %10 = sext i32 %.val14 to i64
  %11 = icmp slt i64 %indvars.iv.next, %10
  br i1 %11, label %12, label %.critedge, !llvm.loop !74

12:                                               ; preds = %.lr.ph, %9
  %indvars.iv = phi i64 [ 0, %.lr.ph ], [ %indvars.iv.next, %9 ]
  %.val16 = load ptr, ptr %4, align 8, !tbaa !15
  %13 = getelementptr inbounds nuw ptr, ptr %.val16, i64 %indvars.iv
  %14 = load ptr, ptr %13, align 8, !tbaa !18
  %.val15 = load ptr, ptr %7, align 8, !tbaa !15
  %15 = getelementptr inbounds nuw ptr, ptr %.val15, i64 %indvars.iv
  %16 = load ptr, ptr %15, align 8, !tbaa !18
  %17 = getelementptr i8, ptr %16, i64 4
  %.val18 = load i32, ptr %17, align 4, !tbaa !33
  %18 = getelementptr i8, ptr %14, i64 4
  %.val17 = load i32, ptr %18, align 4, !tbaa !33
  %19 = trunc nuw nsw i64 %indvars.iv to i32
  %20 = tail call i32 (ptr, ...) @printf(ptr noundef nonnull dereferenceable(1) @.str, i32 noundef %19, i32 noundef %.val17, i32 noundef %.val18)
  %.val = load i32, ptr %8, align 4, !tbaa !12
  %21 = add nsw i32 %.val, -1
  %22 = zext i32 %21 to i64
  %23 = icmp eq i64 %indvars.iv, %22
  br i1 %23, label %.critedge, label %9

.critedge:                                        ; preds = %12, %9, %3
  ret void
}